; Function Attrs: mustprogress uwtable
define noundef i64 @_ZN9syscall_t9sys_fstatEmmmmmmm(ptr nocapture noundef nonnull readonly align 8 dereferenceable(176) %0, i64 noundef %1, i64 noundef %2, i64 %3, i64 %4, i64 %5, i64 %6, i64 %7) #3 align 2 {
  %9 = alloca %struct.stat, align 8
  %10 = alloca %struct.riscv_stat, align 8
  %11 = and i64 %1, 4294967295
  %12 = icmp eq i64 %11, 4294967196
  br i1 %12, label %_ZN5fds_t6lookupEm.exit, label %13

13:                                               ; preds = %8
  %14 = getelementptr inbounds i8, ptr %0, i64 96
  %15 = getelementptr inbounds i8, ptr %0, i64 104
  %16 = load ptr, ptr %15, align 8
  %17 = load ptr, ptr %14, align 8
  %18 = ptrtoint ptr %16 to i64
  %19 = ptrtoint ptr %17 to i64
  %20 = sub i64 %18, %19
  %21 = ashr exact i64 %20, 2
  %.not.i = icmp ugt i64 %21, %1
  br i1 %.not.i, label %22, label %_ZN5fds_t6lookupEm.exit

22:                                               ; preds = %13
  %23 = getelementptr inbounds i32, ptr %17, i64 %1
  %24 = load i32, ptr %23, align 4
  br label %_ZN5fds_t6lookupEm.exit

_ZN5fds_t6lookupEm.exit:                          ; preds = %8, %13, %22
  %.0.i = phi i32 [ -100, %8 ], [ %24, %22 ], [ -1, %13 ]
  %25 = call i32 @fstat(i32 noundef %.0.i, ptr noundef nonnull %9) #26
  %26 = icmp eq i32 %25, -1
  br i1 %26, label %_ZL12sysret_errnol.exit, label %_ZL12sysret_errnol.exit.thread

_ZL12sysret_errnol.exit:                          ; preds = %_ZN5fds_t6lookupEm.exit
  %27 = tail call ptr @__errno_location() #30
  %28 = load i32, ptr %27, align 4
  %29 = sub nsw i32 0, %28
  %.not = icmp eq i32 %28, 1
  br i1 %.not, label %38, label %_ZL12sysret_errnol.exit.thread

_ZL12sysret_errnol.exit.thread:                   ; preds = %_ZN5fds_t6lookupEm.exit, %_ZL12sysret_errnol.exit
  %.in6 = phi i32 [ %29, %_ZL12sysret_errnol.exit ], [ %25, %_ZN5fds_t6lookupEm.exit ]
  %30 = getelementptr inbounds i8, ptr %0, i64 56
  %31 = load ptr, ptr %30, align 8
  call void @_ZN10riscv_statC2ERK4statP6htif_t(ptr noundef nonnull align 8 dereferenceable(128) %10, ptr noundef nonnull align 8 dereferenceable(144) %9, ptr noundef %31)
  %32 = getelementptr inbounds i8, ptr %0, i64 64
  %33 = load ptr, ptr %32, align 8
  %34 = load ptr, ptr %33, align 8
  %35 = getelementptr inbounds i8, ptr %34, i64 24
  %36 = load ptr, ptr %35, align 8
  call void %36(ptr noundef nonnull align 8 dereferenceable(16) %33, i64 noundef %2, i64 noundef 128, ptr noundef nonnull %10)
  %37 = sext i32 %.in6 to i64
  br label %38

38:                                               ; preds = %_ZL12sysret_errnol.exit.thread, %_ZL12sysret_errnol.exit
  %.in7 = phi i64 [ %37, %_ZL12sysret_errnol.exit.thread ], [ -1, %_ZL12sysret_errnol.exit ]
  ret i64 %.in7
}